; Function Attrs: nounwind uwtable
define i32 @tls_free(ptr noundef %0) #0 {
  %2 = alloca i64, align 8
  call void @llvm.lifetime.start.p0(i64 8, ptr nonnull %2) #13
  %3 = icmp eq ptr %0, null
  br i1 %3, label %17, label %4

4:                                                ; preds = %1
  %5 = getelementptr inbounds nuw i8, ptr %0, i64 1728
  %6 = load i64, ptr %5, align 8, !tbaa !45
  %.not = icmp eq i64 %6, 0
  br i1 %.not, label %16, label %7

7:                                                ; preds = %4
  %8 = getelementptr inbounds nuw i8, ptr %0, i64 1696
  %9 = getelementptr inbounds nuw i8, ptr %0, i64 72
  %10 = load ptr, ptr %9, align 8, !tbaa !113
  %11 = load ptr, ptr %8, align 8, !tbaa !3
  %12 = getelementptr inbounds nuw i8, ptr %0, i64 1720
  %13 = load i64, ptr %12, align 8, !tbaa !47
  %14 = getelementptr inbounds nuw i8, ptr %11, i64 %13
  %15 = call i32 @BIO_write_ex(ptr noundef %10, ptr noundef %14, i64 noundef %6, ptr noundef nonnull %2) #13
  br label %16

16:                                               ; preds = %7, %4
  %.0 = phi i32 [ %15, %7 ], [ 1, %4 ]
  call fastcc void @tls_int_free(ptr noundef nonnull %0)
  br label %17

17:                                               ; preds = %1, %16
  %.010 = phi i32 [ %.0, %16 ], [ 1, %1 ]
  call void @llvm.lifetime.end.p0(i64 8, ptr nonnull %2) #13
  ret i32 %.010
}